target datalayout = "e-m:e-p270:32:32-p271:32:32-p272:64:64-i64:64-i128:128-f80:128-n8:16:32:64-S128"
target triple = "x86_64-pc-linux-gnu"

%struct.SDL_DriverPS5_Context = type { ptr, ptr, i8, i8, i8, i8, i8, i8, i8, i8, i32, i8, i8, i8, i8, i8, i8, i8, [6 x %struct.IMUCalibrationData], i16, i64, i32, i8, i8, i8, i8, i8, i8, i8, i32, i64, i32, %union.anon }
%struct.IMUCalibrationData = type { i16, float }
%union.anon = type { [64 x i8] }
%struct.PS5StatePacket_t = type { i8, i8, i8, i8, i8, i8, i8, [4 x i8], [4 x i8], [2 x i8], [2 x i8], [2 x i8], [2 x i8], [2 x i8], [2 x i8], [4 x i8], i8, i8, [3 x i8], i8, [3 x i8], [8 x i8], [4 x i8], i8, i8 }

; Function Attrs: nounwind uwtable
define internal void @HIDAPI_DriverPS5_HandleStatePacket(ptr noundef %0, ptr noundef %1, ptr noundef %2, ptr noundef %3, i64 noundef %4) #0 {
  %6 = alloca ptr, align 8
  %7 = alloca ptr, align 8
  %8 = alloca ptr, align 8
  %9 = alloca ptr, align 8
  %10 = alloca i64, align 8
  %11 = alloca i8, align 1
  %12 = alloca i32, align 4
  %13 = alloca i32, align 4
  %14 = alloca i32, align 4
  %15 = alloca i32, align 4
  %16 = alloca i8, align 1
  %17 = alloca i8, align 1
  store ptr %0, ptr %6, align 8
  store ptr %1, ptr %7, align 8
  store ptr %2, ptr %8, align 8
  store ptr %3, ptr %9, align 8
  store i64 %4, ptr %10, align 8
  call void @llvm.lifetime.start.p0(i64 1, ptr %11) #6
  call void @llvm.lifetime.start.p0(i64 4, ptr %12) #6
  call void @llvm.lifetime.start.p0(i64 4, ptr %13) #6
  %18 = load ptr, ptr %8, align 8
  %19 = getelementptr inbounds nuw %struct.SDL_DriverPS5_Context, ptr %18, i32 0, i32 15
  %20 = load i8, ptr %19, align 8, !range !5, !noundef !6
  %21 = trunc i8 %20 to i1
  br i1 %21, label %22, label %115

22:                                               ; preds = %5
  %23 = load ptr, ptr %9, align 8
  %24 = getelementptr inbounds nuw %struct.PS5StatePacket_t, ptr %23, i32 0, i32 17
  %25 = load i8, ptr %24, align 1
  %26 = zext i8 %25 to i32
  %27 = and i32 %26, 128
  %28 = icmp eq i32 %27, 0
  %29 = zext i1 %28 to i8
  store i8 %29, ptr %11, align 1
  %30 = load ptr, ptr %9, align 8
  %31 = getelementptr inbounds nuw %struct.PS5StatePacket_t, ptr %30, i32 0, i32 18
  %32 = getelementptr inbounds [3 x i8], ptr %31, i64 0, i64 0
  %33 = load i8, ptr %32, align 1
  %34 = zext i8 %33 to i32
  %35 = load ptr, ptr %9, align 8
  %36 = getelementptr inbounds nuw %struct.PS5StatePacket_t, ptr %35, i32 0, i32 18
  %37 = getelementptr inbounds [3 x i8], ptr %36, i64 0, i64 1
  %38 = load i8, ptr %37, align 1
  %39 = zext i8 %38 to i32
  %40 = and i32 %39, 15
  %41 = shl i32 %40, 8
  %42 = or i32 %34, %41
  store i32 %42, ptr %12, align 4
  %43 = load ptr, ptr %9, align 8
  %44 = getelementptr inbounds nuw %struct.PS5StatePacket_t, ptr %43, i32 0, i32 18
  %45 = getelementptr inbounds [3 x i8], ptr %44, i64 0, i64 1
  %46 = load i8, ptr %45, align 1
  %47 = zext i8 %46 to i32
  %48 = ashr i32 %47, 4
  %49 = load ptr, ptr %9, align 8
  %50 = getelementptr inbounds nuw %struct.PS5StatePacket_t, ptr %49, i32 0, i32 18
  %51 = getelementptr inbounds [3 x i8], ptr %50, i64 0, i64 2
  %52 = load i8, ptr %51, align 1
  %53 = zext i8 %52 to i32
  %54 = shl i32 %53, 4
  %55 = or i32 %48, %54
  store i32 %55, ptr %13, align 4
  %56 = load i64, ptr %10, align 8
  %57 = load ptr, ptr %6, align 8
  %58 = load i8, ptr %11, align 1, !range !5, !noundef !6
  %59 = trunc i8 %58 to i1
  %60 = load i32, ptr %12, align 4
  %61 = sitofp i32 %60 to float
  %62 = fmul float %61, 0x3F41111120000000
  %63 = load i32, ptr %13, align 4
  %64 = sitofp i32 %63 to float
  %65 = fmul float %64, 0x3F4E9FD220000000
  %66 = load i8, ptr %11, align 1, !range !5, !noundef !6
  %67 = trunc i8 %66 to i1
  %68 = select i1 %67, float 1.000000e+00, float 0.000000e+00
  call void @SDL_SendJoystickTouchpad(i64 noundef %56, ptr noundef %57, i32 noundef 0, i32 noundef 0, i1 noundef zeroext %59, float noundef %62, float noundef %65, float noundef %68)
  %69 = load ptr, ptr %9, align 8
  %70 = getelementptr inbounds nuw %struct.PS5StatePacket_t, ptr %69, i32 0, i32 19
  %71 = load i8, ptr %70, align 1
  %72 = zext i8 %71 to i32
  %73 = and i32 %72, 128
  %74 = icmp eq i32 %73, 0
  %75 = zext i1 %74 to i8
  store i8 %75, ptr %11, align 1
  %76 = load ptr, ptr %9, align 8
  %77 = getelementptr inbounds nuw %struct.PS5StatePacket_t, ptr %76, i32 0, i32 20
  %78 = getelementptr inbounds [3 x i8], ptr %77, i64 0, i64 0
  %79 = load i8, ptr %78, align 1
  %80 = zext i8 %79 to i32
  %81 = load ptr, ptr %9, align 8
  %82 = getelementptr inbounds nuw %struct.PS5StatePacket_t, ptr %81, i32 0, i32 20
  %83 = getelementptr inbounds [3 x i8], ptr %82, i64 0, i64 1
  %84 = load i8, ptr %83, align 1
  %85 = zext i8 %84 to i32
  %86 = and i32 %85, 15
  %87 = shl i32 %86, 8
  %88 = or i32 %80, %87
  store i32 %88, ptr %12, align 4
  %89 = load ptr, ptr %9, align 8
  %90 = getelementptr inbounds nuw %struct.PS5StatePacket_t, ptr %89, i32 0, i32 20
  %91 = getelementptr inbounds [3 x i8], ptr %90, i64 0, i64 1
  %92 = load i8, ptr %91, align 1
  %93 = zext i8 %92 to i32
  %94 = ashr i32 %93, 4
  %95 = load ptr, ptr %9, align 8
  %96 = getelementptr inbounds nuw %struct.PS5StatePacket_t, ptr %95, i32 0, i32 20
  %97 = getelementptr inbounds [3 x i8], ptr %96, i64 0, i64 2
  %98 = load i8, ptr %97, align 1
  %99 = zext i8 %98 to i32
  %100 = shl i32 %99, 4
  %101 = or i32 %94, %100
  store i32 %101, ptr %13, align 4
  %102 = load i64, ptr %10, align 8
  %103 = load ptr, ptr %6, align 8
  %104 = load i8, ptr %11, align 1, !range !5, !noundef !6
  %105 = trunc i8 %104 to i1
  %106 = load i32, ptr %12, align 4
  %107 = sitofp i32 %106 to float
  %108 = fmul float %107, 0x3F41111120000000
  %109 = load i32, ptr %13, align 4
  %110 = sitofp i32 %109 to float
  %111 = fmul float %110, 0x3F4E9FD220000000
  %112 = load i8, ptr %11, align 1, !range !5, !noundef !6
  %113 = trunc i8 %112 to i1
  %114 = select i1 %113, float 1.000000e+00, float 0.000000e+00
  call void @SDL_SendJoystickTouchpad(i64 noundef %102, ptr noundef %103, i32 noundef 0, i32 noundef 1, i1 noundef zeroext %105, float noundef %108, float noundef %111, float noundef %114)
  br label %115

115:                                              ; preds = %22, %5
  %116 = load ptr, ptr %8, align 8
  %117 = getelementptr inbounds nuw %struct.SDL_DriverPS5_Context, ptr %116, i32 0, i32 16
  %118 = load i8, ptr %117, align 1, !range !5, !noundef !6
  %119 = trunc i8 %118 to i1
  br i1 %119, label %120, label %170

120:                                              ; preds = %115
  call void @llvm.lifetime.start.p0(i64 4, ptr %14) #6
  call void @llvm.lifetime.start.p0(i64 4, ptr %15) #6
  call void @llvm.lifetime.start.p0(i64 1, ptr %16) #6
  %121 = load ptr, ptr %9, align 8
  %122 = getelementptr inbounds nuw %struct.PS5StatePacket_t, ptr %121, i32 0, i32 23
  %123 = load i8, ptr %122, align 1
  %124 = zext i8 %123 to i32
  %125 = ashr i32 %124, 4
  %126 = and i32 %125, 15
  %127 = trunc i32 %126 to i8
  store i8 %127, ptr %16, align 1
  call void @llvm.lifetime.start.p0(i64 1, ptr %17) #6
  %128 = load ptr, ptr %9, align 8
  %129 = getelementptr inbounds nuw %struct.PS5StatePacket_t, ptr %128, i32 0, i32 23
  %130 = load i8, ptr %129, align 1
  %131 = zext i8 %130 to i32
  %132 = and i32 %131, 15
  %133 = trunc i32 %132 to i8
  store i8 %133, ptr %17, align 1
  %134 = load i8, ptr %16, align 1
  %135 = zext i8 %134 to i32
  switch i32 %135, label %165 [
    i32 0, label %136
    i32 1, label %150
    i32 2, label %164
  ]

136:                                              ; preds = %120
  store i32 1, ptr %14, align 4
  %137 = load i8, ptr %17, align 1
  %138 = zext i8 %137 to i32
  %139 = mul nsw i32 %138, 10
  %140 = add nsw i32 %139, 5
  %141 = icmp slt i32 %140, 100
  br i1 %141, label %142, label %147

142:                                              ; preds = %136
  %143 = load i8, ptr %17, align 1
  %144 = zext i8 %143 to i32
  %145 = mul nsw i32 %144, 10
  %146 = add nsw i32 %145, 5
  br label %148

147:                                              ; preds = %136
  br label %148

148:                                              ; preds = %147, %142
  %149 = phi i32 [ %146, %142 ], [ 100, %147 ]
  store i32 %149, ptr %15, align 4
  br label %166

150:                                              ; preds = %120
  store i32 3, ptr %14, align 4
  %151 = load i8, ptr %17, align 1
  %152 = zext i8 %151 to i32
  %153 = mul nsw i32 %152, 10
  %154 = add nsw i32 %153, 5
  %155 = icmp slt i32 %154, 100
  br i1 %155, label %156, label %161

156:                                              ; preds = %150
  %157 = load i8, ptr %17, align 1
  %158 = zext i8 %157 to i32
  %159 = mul nsw i32 %158, 10
  %160 = add nsw i32 %159, 5
  br label %162

161:                                              ; preds = %150
  br label %162

162:                                              ; preds = %161, %156
  %163 = phi i32 [ %160, %156 ], [ 100, %161 ]
  store i32 %163, ptr %15, align 4
  br label %166

164:                                              ; preds = %120
  store i32 4, ptr %14, align 4
  store i32 100, ptr %15, align 4
  br label %166

165:                                              ; preds = %120
  store i32 0, ptr %14, align 4
  store i32 0, ptr %15, align 4
  br label %166

166:                                              ; preds = %165, %164, %162, %148
  %167 = load ptr, ptr %6, align 8
  %168 = load i32, ptr %14, align 4
  %169 = load i32, ptr %15, align 4
  call void @SDL_SendJoystickPowerInfo(ptr noundef %167, i32 noundef %168, i32 noundef %169)
  call void @llvm.lifetime.end.p0(i64 1, ptr %17) #6
  call void @llvm.lifetime.end.p0(i64 1, ptr %16) #6
  call void @llvm.lifetime.end.p0(i64 4, ptr %15) #6
  call void @llvm.lifetime.end.p0(i64 4, ptr %14) #6
  br label %170

170:                                              ; preds = %166, %115
  %171 = load ptr, ptr %6, align 8
  %172 = load ptr, ptr %7, align 8
  %173 = load ptr, ptr %8, align 8
  %174 = load ptr, ptr %9, align 8
  %175 = load i64, ptr %10, align 8
  call void @HIDAPI_DriverPS5_HandleStatePacketCommon(ptr noundef %171, ptr noundef %172, ptr noundef %173, ptr noundef %174, i64 noundef %175)
  %176 = load ptr, ptr %8, align 8
  %177 = getelementptr inbounds nuw %struct.SDL_DriverPS5_Context, ptr %176, i32 0, i32 32
  %178 = load ptr, ptr %9, align 8
  call void @llvm.memcpy.p0.p0.i64(ptr align 4 %177, ptr align 1 %178, i64 64, i1 false)
  call void @llvm.lifetime.end.p0(i64 4, ptr %13) #6
  call void @llvm.lifetime.end.p0(i64 4, ptr %12) #6
  call void @llvm.lifetime.end.p0(i64 1, ptr %11) #6
  ret void
}